; Function Attrs: nounwind uwtable
define void @Sbm_AddCardinConstrTest() local_unnamed_addr #0 {
  %1 = alloca ptr, align 8
  %2 = alloca i32, align 4
  %3 = tail call noalias dereferenceable_or_null(16) ptr @malloc(i64 noundef 16) #15
  %4 = getelementptr inbounds nuw i8, ptr %3, i64 4
  store i32 0, ptr %4, align 4
  store i32 16, ptr %3, align 8
  %5 = tail call noalias dereferenceable_or_null(64) ptr @malloc(i64 noundef 64) #15
  %6 = getelementptr inbounds nuw i8, ptr %3, i64 8
  store ptr %5, ptr %6, align 8
  %7 = call ptr @Sbm_AddCardinSolver(i32 noundef 3, ptr noundef nonnull %1)
  %8 = tail call i32 @sat_solver_nvars(ptr noundef %7) #16
  %9 = load ptr, ptr %1, align 8
  %10 = getelementptr i8, ptr %9, i64 8
  %.val = load ptr, ptr %10, align 8
  %11 = getelementptr inbounds nuw i8, ptr %.val, i64 8
  %12 = load i32, ptr %11, align 4
  %13 = shl nsw i32 %12, 1
  %14 = or disjoint i32 %13, 1
  store i32 %14, ptr %2, align 4
  %15 = tail call i32 @sat_solver_nclauses(ptr noundef %7) #16
  %16 = tail call i32 (ptr, ...) @printf(ptr noundef nonnull dereferenceable(1) @.str.3, i32 noundef 3, i32 noundef 8, i32 noundef %8, i32 noundef %15, i32 noundef 37)
  %17 = getelementptr inbounds nuw i8, ptr %2, i64 4
  %18 = getelementptr i8, ptr %7, i64 328
  %19 = call i32 @sat_solver_solve(ptr noundef %7, ptr noundef nonnull %2, ptr noundef nonnull %17, i64 noundef 0, i64 noundef 0, i64 noundef 0, i64 noundef 0) #16
  %.not40 = icmp eq i32 %19, 1
  br i1 %.not40, label %.lr.ph, label %._crit_edge

20:                                               ; preds = %63
  %21 = add nuw nsw i32 %.03141, 1
  %22 = call i32 @sat_solver_solve(ptr noundef nonnull %7, ptr noundef nonnull %2, ptr noundef nonnull %17, i64 noundef 0, i64 noundef 0, i64 noundef 0, i64 noundef 0) #16
  %.not = icmp eq i32 %22, 1
  br i1 %.not, label %.lr.ph, label %._crit_edge

.lr.ph:                                           ; preds = %0, %20
  %.03141 = phi i32 [ %21, %20 ], [ 1, %0 ]
  store i32 0, ptr %4, align 4
  %23 = call i32 (ptr, ...) @printf(ptr noundef nonnull dereferenceable(1) @.str.4, i32 noundef %.03141)
  br label %24

24:                                               ; preds = %.lr.ph, %Vec_IntPush.exit
  %indvars.iv = phi i64 [ 0, %.lr.ph ], [ %indvars.iv.next, %Vec_IntPush.exit ]
  %.val34 = load ptr, ptr %18, align 8
  %25 = getelementptr inbounds nuw i32, ptr %.val34, i64 %indvars.iv
  %26 = load i32, ptr %25, align 4
  %27 = icmp eq i32 %26, 1
  %28 = zext i1 %27 to i32
  %indvars.iv.tr = trunc i64 %indvars.iv to i32
  %29 = shl i32 %indvars.iv.tr, 1
  %30 = or disjoint i32 %29, %28
  %31 = load i32, ptr %4, align 4
  %32 = load i32, ptr %3, align 8
  %33 = icmp eq i32 %31, %32
  br i1 %33, label %34, label %.Vec_IntGrow.exit10_crit_edge.i

.Vec_IntGrow.exit10_crit_edge.i:                  ; preds = %24
  %.pre.i = load ptr, ptr %6, align 8
  br label %Vec_IntPush.exit

34:                                               ; preds = %24
  %35 = icmp slt i32 %31, 16
  br i1 %35, label %36, label %43

36:                                               ; preds = %34
  %37 = load ptr, ptr %6, align 8
  %.not9.i.i = icmp eq ptr %37, null
  br i1 %.not9.i.i, label %40, label %38

38:                                               ; preds = %36
  %39 = call dereferenceable_or_null(64) ptr @realloc(ptr noundef nonnull %37, i64 noundef 64) #14
  br label %Vec_IntGrow.exit.i

40:                                               ; preds = %36
  %41 = call noalias dereferenceable_or_null(64) ptr @malloc(i64 noundef 64) #15
  br label %Vec_IntGrow.exit.i

Vec_IntGrow.exit.i:                               ; preds = %40, %38
  %42 = phi ptr [ %39, %38 ], [ %41, %40 ]
  store ptr %42, ptr %6, align 8
  store i32 16, ptr %3, align 8
  br label %Vec_IntPush.exit

43:                                               ; preds = %34
  %44 = shl nuw nsw i32 %31, 1
  %45 = load ptr, ptr %6, align 8
  %.not9.i9.i = icmp eq ptr %45, null
  %46 = zext nneg i32 %44 to i64
  %47 = shl nuw nsw i64 %46, 2
  br i1 %.not9.i9.i, label %50, label %48

48:                                               ; preds = %43
  %49 = call ptr @realloc(ptr noundef nonnull %45, i64 noundef %47) #14
  br label %52

50:                                               ; preds = %43
  %51 = call noalias ptr @malloc(i64 noundef %47) #15
  br label %52

52:                                               ; preds = %50, %48
  %53 = phi ptr [ %49, %48 ], [ %51, %50 ]
  store ptr %53, ptr %6, align 8
  store i32 %44, ptr %3, align 8
  br label %Vec_IntPush.exit

Vec_IntPush.exit:                                 ; preds = %.Vec_IntGrow.exit10_crit_edge.i, %Vec_IntGrow.exit.i, %52
  %54 = phi ptr [ %.pre.i, %.Vec_IntGrow.exit10_crit_edge.i ], [ %53, %52 ], [ %42, %Vec_IntGrow.exit.i ]
  %55 = add nsw i32 %31, 1
  store i32 %55, ptr %4, align 4
  %56 = sext i32 %31 to i64
  %57 = getelementptr inbounds i32, ptr %54, i64 %56
  store i32 %30, ptr %57, align 4
  %.val35 = load ptr, ptr %18, align 8
  %58 = getelementptr inbounds nuw i32, ptr %.val35, i64 %indvars.iv
  %59 = load i32, ptr %58, align 4
  %60 = icmp eq i32 %59, 1
  %61 = zext i1 %60 to i32
  %62 = call i32 (ptr, ...) @printf(ptr noundef nonnull dereferenceable(1) @.str.5, i32 noundef %61)
  %indvars.iv.next = add nuw nsw i64 %indvars.iv, 1
  %exitcond.not = icmp eq i64 %indvars.iv.next, 8
  br i1 %exitcond.not, label %63, label %24, !llvm.loop !19

63:                                               ; preds = %Vec_IntPush.exit
  %putchar = call i32 @putchar(i32 10)
  %.val33 = load ptr, ptr %6, align 8
  %64 = getelementptr inbounds nuw i8, ptr %.val33, i64 32
  %65 = call i32 @sat_solver_addclause(ptr noundef nonnull %7, ptr noundef %.val33, ptr noundef nonnull %64) #16
  %66 = icmp eq i32 %65, 0
  br i1 %66, label %._crit_edge, label %20

._crit_edge:                                      ; preds = %20, %63, %0
  %67 = phi ptr [ %5, %0 ], [ %.val33, %63 ], [ %.val33, %20 ]
  call void @sat_solver_delete(ptr noundef %7) #16
  %68 = load ptr, ptr %1, align 8
  %69 = getelementptr inbounds nuw i8, ptr %68, i64 8
  %70 = load ptr, ptr %69, align 8
  %.not.i = icmp eq ptr %70, null
  br i1 %.not.i, label %Vec_IntFree.exit, label %71

71:                                               ; preds = %._crit_edge
  call void @free(ptr noundef nonnull %70) #16
  br label %Vec_IntFree.exit

Vec_IntFree.exit:                                 ; preds = %._crit_edge, %71
  call void @free(ptr noundef nonnull %68) #16
  %.not.i36 = icmp eq ptr %67, null
  br i1 %.not.i36, label %Vec_IntFree.exit37, label %72

72:                                               ; preds = %Vec_IntFree.exit
  call void @free(ptr noundef nonnull %67) #16
  br label %Vec_IntFree.exit37

Vec_IntFree.exit37:                               ; preds = %Vec_IntFree.exit, %72
  call void @free(ptr noundef nonnull %3) #16
  ret void
}